target datalayout = "e-m:e-p270:32:32-p271:32:32-p272:64:64-i64:64-i128:128-f80:128-n8:16:32:64-S128"
target triple = "x86_64-pc-linux-gnu"

@.str.14 = private unnamed_addr constant [28 x i8] c"../openssl/test/http_test.c\00", align 1
@.str.46 = private unnamed_addr constant [5 x i8] c"host\00", align 1
@.str.50 = private unnamed_addr constant [2 x i8] c"1\00", align 1
@.str.54 = private unnamed_addr constant [5 x i8] c"port\00", align 1
@.str.58 = private unnamed_addr constant [5 x i8] c"path\00", align 1
@.str.91 = private unnamed_addr constant [76 x i8] c"OSSL_HTTP_parse_url(url, &ssl, NULL, &host, &port, &num, &path, NULL, NULL)\00", align 1

; Function Attrs: nounwind uwtable
define internal i32 @test_http_url_invalid(ptr noundef %0) #0 {
  %2 = alloca ptr, align 8
  %3 = alloca ptr, align 8
  %4 = alloca ptr, align 8
  %5 = alloca ptr, align 8
  %6 = alloca i32, align 4
  %7 = alloca i32, align 4
  %8 = alloca i32, align 4
  store ptr %0, ptr %2, align 8, !tbaa !11
  call void @llvm.lifetime.start.p0(i64 8, ptr %3) #7
  store ptr @.str.50, ptr %3, align 8, !tbaa !11
  call void @llvm.lifetime.start.p0(i64 8, ptr %4) #7
  store ptr @.str.50, ptr %4, align 8, !tbaa !11
  call void @llvm.lifetime.start.p0(i64 8, ptr %5) #7
  store ptr @.str.50, ptr %5, align 8, !tbaa !11
  call void @llvm.lifetime.start.p0(i64 4, ptr %6) #7
  store i32 1, ptr %6, align 4, !tbaa !13
  call void @llvm.lifetime.start.p0(i64 4, ptr %7) #7
  store i32 1, ptr %7, align 4, !tbaa !13
  call void @llvm.lifetime.start.p0(i64 4, ptr %8) #7
  %9 = load ptr, ptr %2, align 8, !tbaa !11
  %10 = call i32 @OSSL_HTTP_parse_url(ptr noundef %9, ptr noundef %7, ptr noundef null, ptr noundef %3, ptr noundef %4, ptr noundef %6, ptr noundef %5, ptr noundef null, ptr noundef null)
  %11 = icmp ne i32 %10, 0
  %12 = zext i1 %11 to i32
  %13 = call i32 @test_false(ptr noundef @.str.14, i32 noundef 364, ptr noundef @.str.91, i32 noundef %12)
  %14 = icmp ne i32 %13, 0
  br i1 %14, label %15, label %27

15:                                               ; preds = %1
  %16 = load ptr, ptr %3, align 8, !tbaa !11
  %17 = call i32 @test_ptr_null(ptr noundef @.str.14, i32 noundef 365, ptr noundef @.str.46, ptr noundef %16)
  %18 = icmp ne i32 %17, 0
  br i1 %18, label %19, label %27

19:                                               ; preds = %15
  %20 = load ptr, ptr %4, align 8, !tbaa !11
  %21 = call i32 @test_ptr_null(ptr noundef @.str.14, i32 noundef 366, ptr noundef @.str.54, ptr noundef %20)
  %22 = icmp ne i32 %21, 0
  br i1 %22, label %23, label %27

23:                                               ; preds = %19
  %24 = load ptr, ptr %5, align 8, !tbaa !11
  %25 = call i32 @test_ptr_null(ptr noundef @.str.14, i32 noundef 367, ptr noundef @.str.58, ptr noundef %24)
  %26 = icmp ne i32 %25, 0
  br label %27

27:                                               ; preds = %23, %19, %15, %1
  %28 = phi i1 [ false, %19 ], [ false, %15 ], [ false, %1 ], [ %26, %23 ]
  %29 = zext i1 %28 to i32
  store i32 %29, ptr %8, align 4, !tbaa !13
  %30 = load i32, ptr %8, align 4, !tbaa !13
  %31 = icmp ne i32 %30, 0
  br i1 %31, label %36, label %32

32:                                               ; preds = %27
  %33 = load ptr, ptr %3, align 8, !tbaa !11
  call void @CRYPTO_free(ptr noundef %33, ptr noundef @.str.14, i32 noundef 369)
  %34 = load ptr, ptr %4, align 8, !tbaa !11
  call void @CRYPTO_free(ptr noundef %34, ptr noundef @.str.14, i32 noundef 370)
  %35 = load ptr, ptr %5, align 8, !tbaa !11
  call void @CRYPTO_free(ptr noundef %35, ptr noundef @.str.14, i32 noundef 371)
  br label %36

36:                                               ; preds = %32, %27
  %37 = load i32, ptr %8, align 4, !tbaa !13
  call void @llvm.lifetime.end.p0(i64 4, ptr %8) #7
  call void @llvm.lifetime.end.p0(i64 4, ptr %7) #7
  call void @llvm.lifetime.end.p0(i64 4, ptr %6) #7
  call void @llvm.lifetime.end.p0(i64 8, ptr %5) #7
  call void @llvm.lifetime.end.p0(i64 8, ptr %4) #7
  call void @llvm.lifetime.end.p0(i64 8, ptr %3) #7
  ret i32 %37
}