; Function Attrs: nounwind uwtable
define internal fastcc range(i32 0, 2) i32 @test_http_url_invalid(ptr noundef %0) unnamed_addr #0 {
  %2 = alloca ptr, align 8
  %3 = alloca ptr, align 8
  %4 = alloca ptr, align 8
  %5 = alloca i32, align 4
  %6 = alloca i32, align 4
  call void @llvm.lifetime.start.p0(i64 8, ptr nonnull %2) #9
  store ptr @.str.50, ptr %2, align 8, !tbaa !11
  call void @llvm.lifetime.start.p0(i64 8, ptr nonnull %3) #9
  store ptr @.str.50, ptr %3, align 8, !tbaa !11
  call void @llvm.lifetime.start.p0(i64 8, ptr nonnull %4) #9
  store ptr @.str.50, ptr %4, align 8, !tbaa !11
  call void @llvm.lifetime.start.p0(i64 4, ptr nonnull %5) #9
  store i32 1, ptr %5, align 4, !tbaa !13
  call void @llvm.lifetime.start.p0(i64 4, ptr nonnull %6) #9
  store i32 1, ptr %6, align 4, !tbaa !13
  %7 = call i32 @OSSL_HTTP_parse_url(ptr noundef %0, ptr noundef nonnull %6, ptr noundef null, ptr noundef nonnull %2, ptr noundef nonnull %3, ptr noundef nonnull %5, ptr noundef nonnull %4, ptr noundef null, ptr noundef null) #9
  %8 = icmp ne i32 %7, 0
  %9 = zext i1 %8 to i32
  %10 = call i32 @test_false(ptr noundef nonnull @.str.14, i32 noundef 364, ptr noundef nonnull @.str.91, i32 noundef %9) #9
  %.not = icmp eq i32 %10, 0
  br i1 %.not, label %.thread, label %11

11:                                               ; preds = %1
  %12 = load ptr, ptr %2, align 8, !tbaa !11
  %13 = call i32 @test_ptr_null(ptr noundef nonnull @.str.14, i32 noundef 365, ptr noundef nonnull @.str.46, ptr noundef %12) #9
  %.not2 = icmp eq i32 %13, 0
  br i1 %.not2, label %.thread, label %14

14:                                               ; preds = %11
  %15 = load ptr, ptr %3, align 8, !tbaa !11
  %16 = call i32 @test_ptr_null(ptr noundef nonnull @.str.14, i32 noundef 366, ptr noundef nonnull @.str.54, ptr noundef %15) #9
  %.not3 = icmp eq i32 %16, 0
  br i1 %.not3, label %.thread, label %17

17:                                               ; preds = %14
  %18 = load ptr, ptr %4, align 8, !tbaa !11
  %19 = call i32 @test_ptr_null(ptr noundef nonnull @.str.14, i32 noundef 367, ptr noundef nonnull @.str.58, ptr noundef %18) #9
  %.not4 = icmp eq i32 %19, 0
  br i1 %.not4, label %.thread, label %23

.thread:                                          ; preds = %1, %11, %14, %17
  %20 = load ptr, ptr %2, align 8, !tbaa !11
  call void @CRYPTO_free(ptr noundef %20, ptr noundef nonnull @.str.14, i32 noundef 369) #9
  %21 = load ptr, ptr %3, align 8, !tbaa !11
  call void @CRYPTO_free(ptr noundef %21, ptr noundef nonnull @.str.14, i32 noundef 370) #9
  %22 = load ptr, ptr %4, align 8, !tbaa !11
  call void @CRYPTO_free(ptr noundef %22, ptr noundef nonnull @.str.14, i32 noundef 371) #9
  br label %23

23:                                               ; preds = %.thread, %17
  %24 = phi i32 [ 0, %.thread ], [ 1, %17 ]
  call void @llvm.lifetime.end.p0(i64 4, ptr nonnull %6) #9
  call void @llvm.lifetime.end.p0(i64 4, ptr nonnull %5) #9
  call void @llvm.lifetime.end.p0(i64 8, ptr nonnull %4) #9
  call void @llvm.lifetime.end.p0(i64 8, ptr nonnull %3) #9
  call void @llvm.lifetime.end.p0(i64 8, ptr nonnull %2) #9
  ret i32 %24
}